target datalayout = "e-m:e-p270:32:32-p271:32:32-p272:64:64-i64:64-i128:128-f80:128-n8:16:32:64-S128"
target triple = "x86_64-pc-linux-gnu"

%struct._zend_executor_globals = type { %struct._zval_struct, %struct._zval_struct, [32 x ptr], ptr, ptr, %struct._zend_array, %struct._zend_array, ptr, i32, i8, %struct._zval_struct, i32, ptr, ptr, ptr, ptr, ptr, ptr, i64, ptr, ptr, i32, ptr, i32, i64, i32, i32, i32, i8, i8, %struct.zend_atomic_bool_s, %struct.zend_atomic_bool_s, ptr, i64, ptr, ptr, %struct._zend_array, %struct._zend_array, i32, i8, %struct._zval_struct, %struct._zval_struct, %struct._zend_stack, %struct._zend_stack, %struct._zend_stack, ptr, i32, i32, i64, ptr, ptr, ptr, %struct._zend_objects_store, %struct._zend_lazy_objects_store, ptr, ptr, ptr, [3 x %struct._zend_op], ptr, i8, i8, i64, i32, i32, ptr, [16 x %struct._HashTableIterator], ptr, %union._zend_function, %struct._zend_op, %struct._zend_array, i64, %struct.zend_get_gc_buffer, ptr, ptr, ptr, i64, i8, i32, ptr, ptr, i64, %struct._zend_call_stack, i64, i64, %struct._zend_strtod_state, [6 x ptr] }
%struct.zend_atomic_bool_s = type { i8 }
%struct._zval_struct = type { %union._zend_value, %union.anon, %union.anon.2 }
%union._zend_value = type { i64 }
%union.anon = type { i32 }
%union.anon.2 = type { i32 }
%struct._zend_stack = type { i32, i32, i32, ptr }
%struct._zend_objects_store = type { ptr, i32, i32, i32 }
%struct._zend_lazy_objects_store = type { %struct._zend_array }
%struct._HashTableIterator = type { ptr, i32, i32 }
%union._zend_function = type { %struct._zend_op_array }
%struct._zend_op_array = type { i8, [3 x i8], i32, ptr, ptr, ptr, i32, i32, ptr, ptr, ptr, ptr, i32, ptr, i32, i32, i32, ptr, ptr, ptr, ptr, ptr, i32, i32, ptr, ptr, ptr, i32, i32, i32, i32, ptr, ptr, [6 x ptr] }
%struct._zend_op = type { ptr, %union._znode_op, %union._znode_op, %union._znode_op, i32, i32, i8, i8, i8, i8 }
%union._znode_op = type { i32 }
%struct._zend_array = type { %struct._zend_refcounted_h, %union.anon.4, i32, %union.anon.6, i32, i32, i32, i32, i64, ptr }
%struct._zend_refcounted_h = type { i32, %union.anon.3 }
%union.anon.3 = type { i32 }
%union.anon.4 = type { i32 }
%union.anon.6 = type { ptr }
%struct.zend_get_gc_buffer = type { ptr, ptr, ptr }
%struct._zend_call_stack = type { ptr, i64 }
%struct._zend_strtod_state = type { [8 x ptr], ptr, ptr }
%struct._zend_object_handlers = type { i32, ptr, ptr, ptr, ptr, ptr, ptr, ptr, ptr, ptr, ptr, ptr, ptr, ptr, ptr, ptr, ptr, ptr, ptr, ptr, ptr, ptr, ptr, ptr, ptr }
%struct._zend_execute_data = type { ptr, ptr, ptr, ptr, %struct._zval_struct, ptr, ptr, ptr, ptr }
%struct._phar_metadata_tracker = type { %struct._zval_struct, ptr }
%struct._phar_entry_info = type { i32, i32, i32, i32, i32, i32, %struct._phar_metadata_tracker, ptr, i32, i64, i64, i64, ptr, ptr, i32, ptr, ptr, ptr, i8, i32, i16, i16 }
%struct._zend_object = type { %struct._zend_refcounted_h, i32, i32, ptr, ptr, ptr, [1 x %struct._zval_struct] }

@executor_globals = external global %struct._zend_executor_globals, align 8
@spl_ce_BadMethodCallException = external global ptr, align 8
@.str.174 = private unnamed_addr constant [59 x i8] c"Cannot call method on an uninitialized PharFileInfo object\00", align 1
@.str.175 = private unnamed_addr constant [4 x i8] c"|l!\00", align 1
@.str.176 = private unnamed_addr constant [35 x i8] c"Unknown compression type specified\00", align 1

; Function Attrs: nounwind uwtable
define hidden void @zim_PharFileInfo_isCompressed(ptr noundef %0, ptr noundef %1) #0 {
  %3 = alloca ptr, align 8
  %4 = alloca ptr, align 8
  %5 = alloca i64, align 8
  %6 = alloca i8, align 1
  %7 = alloca i32, align 4
  %8 = alloca ptr, align 8
  %9 = alloca ptr, align 8
  store ptr %0, ptr %3, align 8, !tbaa !4
  store ptr %1, ptr %4, align 8, !tbaa !9
  call void @llvm.lifetime.start.p0(i64 8, ptr %5) #17
  call void @llvm.lifetime.start.p0(i64 1, ptr %6) #17
  store i8 1, ptr %6, align 1, !tbaa !11
  %10 = load ptr, ptr %3, align 8, !tbaa !4
  %11 = getelementptr inbounds nuw %struct._zend_execute_data, ptr %10, i32 0, i32 4
  %12 = getelementptr inbounds nuw %struct._zval_struct, ptr %11, i32 0, i32 2
  %13 = load i32, ptr %12, align 4, !tbaa !13
  %14 = call i32 (i32, ptr, ...) @zend_parse_parameters(i32 noundef %13, ptr noundef @.str.175, ptr noundef %5, ptr noundef %6)
  %15 = icmp eq i32 %14, -1
  br i1 %15, label %16, label %22

16:                                               ; preds = %2
  br label %17

17:                                               ; preds = %16
  %18 = load ptr, ptr getelementptr inbounds nuw (%struct._zend_executor_globals, ptr @executor_globals, i32 0, i32 54), align 8, !tbaa !14
  %19 = icmp ne ptr %18, null
  call void @llvm.assume(i1 %19)
  store i32 1, ptr %7, align 4
  br label %128

20:                                               ; No predecessors!
  br label %21

21:                                               ; preds = %20
  br label %22

22:                                               ; preds = %21, %2
  call void @llvm.lifetime.start.p0(i64 8, ptr %8) #17
  %23 = load ptr, ptr %3, align 8, !tbaa !4
  %24 = getelementptr inbounds nuw %struct._zend_execute_data, ptr %23, i32 0, i32 4
  store ptr %24, ptr %8, align 8, !tbaa !9
  call void @llvm.lifetime.start.p0(i64 8, ptr %9) #17
  %25 = load ptr, ptr %8, align 8, !tbaa !9
  %26 = getelementptr inbounds nuw %struct._zval_struct, ptr %25, i32 0, i32 0
  %27 = load ptr, ptr %26, align 8, !tbaa !13
  %28 = load ptr, ptr %8, align 8, !tbaa !9
  %29 = getelementptr inbounds nuw %struct._zval_struct, ptr %28, i32 0, i32 0
  %30 = load ptr, ptr %29, align 8, !tbaa !13
  %31 = getelementptr inbounds nuw %struct._zend_object, ptr %30, i32 0, i32 4
  %32 = load ptr, ptr %31, align 8, !tbaa !118
  %33 = getelementptr inbounds nuw %struct._zend_object_handlers, ptr %32, i32 0, i32 0
  %34 = load i32, ptr %33, align 8, !tbaa !121
  %35 = sext i32 %34 to i64
  %36 = sub i64 0, %35
  %37 = getelementptr inbounds i8, ptr %27, i64 %36
  store ptr %37, ptr %9, align 8, !tbaa !234
  %38 = load ptr, ptr %9, align 8, !tbaa !234
  %39 = load ptr, ptr %38, align 8, !tbaa !13
  %40 = icmp ne ptr %39, null
  br i1 %40, label %49, label %41

41:                                               ; preds = %22
  %42 = load ptr, ptr @spl_ce_BadMethodCallException, align 8, !tbaa !53
  %43 = call ptr (ptr, i64, ptr, ...) @zend_throw_exception_ex(ptr noundef %42, i64 noundef 0, ptr noundef @.str.174)
  br label %44

44:                                               ; preds = %41
  %45 = load ptr, ptr getelementptr inbounds nuw (%struct._zend_executor_globals, ptr @executor_globals, i32 0, i32 54), align 8, !tbaa !14
  %46 = icmp ne ptr %45, null
  call void @llvm.assume(i1 %46)
  store i32 1, ptr %7, align 4
  br label %127

47:                                               ; No predecessors!
  br label %48

48:                                               ; preds = %47
  br label %49

49:                                               ; preds = %48, %22
  %50 = load i8, ptr %6, align 1, !tbaa !11, !range !50, !noundef !51
  %51 = trunc i8 %50 to i1
  br i1 %51, label %52, label %68

52:                                               ; preds = %49
  br label %53

53:                                               ; preds = %52
  br label %54

54:                                               ; preds = %53
  %55 = load ptr, ptr %9, align 8, !tbaa !234
  %56 = load ptr, ptr %55, align 8, !tbaa !13
  %57 = getelementptr inbounds nuw %struct._phar_entry_info, ptr %56, i32 0, i32 4
  %58 = load i32, ptr %57, align 8, !tbaa !182
  %59 = and i32 %58, 61440
  %60 = icmp ne i32 %59, 0
  %61 = select i1 %60, i32 3, i32 2
  %62 = load ptr, ptr %4, align 8, !tbaa !9
  %63 = getelementptr inbounds nuw %struct._zval_struct, ptr %62, i32 0, i32 1
  store i32 %61, ptr %63, align 8, !tbaa !13
  br label %64

64:                                               ; preds = %54
  br label %65

65:                                               ; preds = %64
  store i32 1, ptr %7, align 4
  br label %127

66:                                               ; No predecessors!
  br label %67

67:                                               ; preds = %66
  br label %68

68:                                               ; preds = %67, %49
  %69 = load i64, ptr %5, align 8, !tbaa !52
  switch i64 %69, label %118 [
    i64 9021976, label %70
    i64 4096, label %86
    i64 8192, label %102
  ]

70:                                               ; preds = %68
  br label %71

71:                                               ; preds = %70
  br label %72

72:                                               ; preds = %71
  %73 = load ptr, ptr %9, align 8, !tbaa !234
  %74 = load ptr, ptr %73, align 8, !tbaa !13
  %75 = getelementptr inbounds nuw %struct._phar_entry_info, ptr %74, i32 0, i32 4
  %76 = load i32, ptr %75, align 8, !tbaa !182
  %77 = and i32 %76, 61440
  %78 = icmp ne i32 %77, 0
  %79 = select i1 %78, i32 3, i32 2
  %80 = load ptr, ptr %4, align 8, !tbaa !9
  %81 = getelementptr inbounds nuw %struct._zval_struct, ptr %80, i32 0, i32 1
  store i32 %79, ptr %81, align 8, !tbaa !13
  br label %82

82:                                               ; preds = %72
  br label %83

83:                                               ; preds = %82
  store i32 1, ptr %7, align 4
  br label %127

84:                                               ; No predecessors!
  br label %85

85:                                               ; preds = %84
  br label %86

86:                                               ; preds = %68, %85
  br label %87

87:                                               ; preds = %86
  br label %88

88:                                               ; preds = %87
  %89 = load ptr, ptr %9, align 8, !tbaa !234
  %90 = load ptr, ptr %89, align 8, !tbaa !13
  %91 = getelementptr inbounds nuw %struct._phar_entry_info, ptr %90, i32 0, i32 4
  %92 = load i32, ptr %91, align 8, !tbaa !182
  %93 = and i32 %92, 4096
  %94 = icmp ne i32 %93, 0
  %95 = select i1 %94, i32 3, i32 2
  %96 = load ptr, ptr %4, align 8, !tbaa !9
  %97 = getelementptr inbounds nuw %struct._zval_struct, ptr %96, i32 0, i32 1
  store i32 %95, ptr %97, align 8, !tbaa !13
  br label %98

98:                                               ; preds = %88
  br label %99

99:                                               ; preds = %98
  store i32 1, ptr %7, align 4
  br label %127

100:                                              ; No predecessors!
  br label %101

101:                                              ; preds = %100
  br label %102

102:                                              ; preds = %68, %101
  br label %103

103:                                              ; preds = %102
  br label %104

104:                                              ; preds = %103
  %105 = load ptr, ptr %9, align 8, !tbaa !234
  %106 = load ptr, ptr %105, align 8, !tbaa !13
  %107 = getelementptr inbounds nuw %struct._phar_entry_info, ptr %106, i32 0, i32 4
  %108 = load i32, ptr %107, align 8, !tbaa !182
  %109 = and i32 %108, 8192
  %110 = icmp ne i32 %109, 0
  %111 = select i1 %110, i32 3, i32 2
  %112 = load ptr, ptr %4, align 8, !tbaa !9
  %113 = getelementptr inbounds nuw %struct._zval_struct, ptr %112, i32 0, i32 1
  store i32 %111, ptr %113, align 8, !tbaa !13
  br label %114

114:                                              ; preds = %104
  br label %115

115:                                              ; preds = %114
  store i32 1, ptr %7, align 4
  br label %127

116:                                              ; No predecessors!
  br label %117

117:                                              ; preds = %116
  br label %118

118:                                              ; preds = %68, %117
  %119 = load ptr, ptr @spl_ce_BadMethodCallException, align 8, !tbaa !53
  %120 = call ptr (ptr, i64, ptr, ...) @zend_throw_exception_ex(ptr noundef %119, i64 noundef 0, ptr noundef @.str.176)
  br label %121

121:                                              ; preds = %118
  %122 = load ptr, ptr getelementptr inbounds nuw (%struct._zend_executor_globals, ptr @executor_globals, i32 0, i32 54), align 8, !tbaa !14
  %123 = icmp ne ptr %122, null
  call void @llvm.assume(i1 %123)
  store i32 1, ptr %7, align 4
  br label %127

124:                                              ; No predecessors!
  br label %125

125:                                              ; preds = %124
  br label %126

126:                                              ; preds = %125
  store i32 0, ptr %7, align 4
  br label %127

127:                                              ; preds = %126, %121, %115, %99, %83, %65, %44
  call void @llvm.lifetime.end.p0(i64 8, ptr %9) #17
  call void @llvm.lifetime.end.p0(i64 8, ptr %8) #17
  br label %128

128:                                              ; preds = %127, %17
  call void @llvm.lifetime.end.p0(i64 1, ptr %6) #17
  call void @llvm.lifetime.end.p0(i64 8, ptr %5) #17
  %129 = load i32, ptr %7, align 4
  switch i32 %129, label %131 [
    i32 0, label %130
    i32 1, label %130
  ]

130:                                              ; preds = %128, %128
  ret void

131:                                              ; preds = %128
  unreachable
}