; Function Attrs: nounwind uwtable
define hidden void @zim_PharFileInfo_isCompressed(ptr noundef readonly captures(none) %0, ptr noundef writeonly captures(none) %1) #0 {
  %3 = alloca i64, align 8
  %4 = alloca i8, align 1
  call void @llvm.lifetime.start.p0(i64 8, ptr nonnull %3) #20
  call void @llvm.lifetime.start.p0(i64 1, ptr nonnull %4) #20
  store i8 1, ptr %4, align 1, !tbaa !4
  %5 = getelementptr inbounds nuw i8, ptr %0, i64 44
  %6 = load i32, ptr %5, align 4, !tbaa !8
  %7 = call i32 (i32, ptr, ...) @zend_parse_parameters(i32 noundef %6, ptr noundef nonnull @.str.175, ptr noundef nonnull %3, ptr noundef nonnull %4) #20
  %8 = icmp eq i32 %7, -1
  br i1 %8, label %9, label %12

9:                                                ; preds = %2
  %10 = load ptr, ptr getelementptr inbounds nuw (i8, ptr @executor_globals, i64 960), align 8, !tbaa !9
  %11 = icmp ne ptr %10, null
  call void @llvm.assume(i1 %11)
  br label %61

12:                                               ; preds = %2
  %13 = getelementptr inbounds nuw i8, ptr %0, i64 32
  %14 = load ptr, ptr %13, align 8, !tbaa !8
  %15 = getelementptr inbounds nuw i8, ptr %14, i64 24
  %16 = load ptr, ptr %15, align 8, !tbaa !109
  %17 = load i32, ptr %16, align 8, !tbaa !112
  %18 = sext i32 %17 to i64
  %19 = sub nsw i64 0, %18
  %20 = getelementptr inbounds i8, ptr %14, i64 %19
  %21 = load ptr, ptr %20, align 8, !tbaa !8
  %.not = icmp eq ptr %21, null
  br i1 %.not, label %22, label %27

22:                                               ; preds = %12
  %23 = load ptr, ptr @spl_ce_BadMethodCallException, align 8, !tbaa !54
  %24 = call ptr (ptr, i64, ptr, ...) @zend_throw_exception_ex(ptr noundef %23, i64 noundef 0, ptr noundef nonnull @.str.174) #20
  %25 = load ptr, ptr getelementptr inbounds nuw (i8, ptr @executor_globals, i64 960), align 8, !tbaa !9
  %26 = icmp ne ptr %25, null
  call void @llvm.assume(i1 %26)
  br label %61

27:                                               ; preds = %12
  %28 = load i8, ptr %4, align 1, !tbaa !4, !range !48, !noundef !49
  %29 = trunc nuw i8 %28 to i1
  br i1 %29, label %30, label %36

30:                                               ; preds = %27
  %31 = getelementptr inbounds nuw i8, ptr %21, i64 16
  %32 = load i32, ptr %31, align 8, !tbaa !163
  %33 = and i32 %32, 61440
  %.not16 = icmp eq i32 %33, 0
  %34 = select i1 %.not16, i32 2, i32 3
  %35 = getelementptr inbounds nuw i8, ptr %1, i64 8
  store i32 %34, ptr %35, align 8, !tbaa !8
  br label %61

36:                                               ; preds = %27
  %37 = load i64, ptr %3, align 8, !tbaa !50
  switch i64 %37, label %56 [
    i64 9021976, label %38
    i64 4096, label %44
    i64 8192, label %50
  ]

38:                                               ; preds = %36
  %39 = getelementptr inbounds nuw i8, ptr %21, i64 16
  %40 = load i32, ptr %39, align 8, !tbaa !163
  %41 = and i32 %40, 61440
  %.not15 = icmp eq i32 %41, 0
  %42 = select i1 %.not15, i32 2, i32 3
  %43 = getelementptr inbounds nuw i8, ptr %1, i64 8
  store i32 %42, ptr %43, align 8, !tbaa !8
  br label %61

44:                                               ; preds = %36
  %45 = getelementptr inbounds nuw i8, ptr %21, i64 16
  %46 = load i32, ptr %45, align 8, !tbaa !163
  %47 = and i32 %46, 4096
  %.not14 = icmp eq i32 %47, 0
  %48 = select i1 %.not14, i32 2, i32 3
  %49 = getelementptr inbounds nuw i8, ptr %1, i64 8
  store i32 %48, ptr %49, align 8, !tbaa !8
  br label %61

50:                                               ; preds = %36
  %51 = getelementptr inbounds nuw i8, ptr %21, i64 16
  %52 = load i32, ptr %51, align 8, !tbaa !163
  %53 = and i32 %52, 8192
  %.not13 = icmp eq i32 %53, 0
  %54 = select i1 %.not13, i32 2, i32 3
  %55 = getelementptr inbounds nuw i8, ptr %1, i64 8
  store i32 %54, ptr %55, align 8, !tbaa !8
  br label %61

56:                                               ; preds = %36
  %57 = load ptr, ptr @spl_ce_BadMethodCallException, align 8, !tbaa !54
  %58 = call ptr (ptr, i64, ptr, ...) @zend_throw_exception_ex(ptr noundef %57, i64 noundef 0, ptr noundef nonnull @.str.176) #20
  %59 = load ptr, ptr getelementptr inbounds nuw (i8, ptr @executor_globals, i64 960), align 8, !tbaa !9
  %60 = icmp ne ptr %59, null
  call void @llvm.assume(i1 %60)
  br label %61

61:                                               ; preds = %22, %30, %38, %44, %50, %56, %9
  call void @llvm.lifetime.end.p0(i64 1, ptr nonnull %4) #20
  call void @llvm.lifetime.end.p0(i64 8, ptr nonnull %3) #20
  ret void
}